; Function Attrs: mustprogress uwtable
define hidden noundef ptr @_ZNK7datalog10lazy_table4evalEv(ptr noundef nonnull readonly align 8 captures(none) dereferenceable(48) %0) local_unnamed_addr #3 align 2 {
  %2 = getelementptr inbounds nuw i8, ptr %0, i64 40
  %3 = load ptr, ptr %2, align 8, !tbaa !56
  %4 = getelementptr inbounds nuw i8, ptr %3, i64 40
  %5 = load ptr, ptr %4, align 8, !tbaa !51
  %.not.i = icmp eq ptr %5, null
  br i1 %.not.i, label %6, label %_ZN7datalog14lazy_table_ref4evalEv.exit

6:                                                ; preds = %1
  %7 = load ptr, ptr %3, align 8, !tbaa !27
  %8 = load ptr, ptr %7, align 8
  %9 = tail call noundef ptr %8(ptr noundef nonnull align 8 dereferenceable(48) %3)
  %10 = load ptr, ptr %4, align 8, !tbaa !51
  %.not.i.i = icmp eq ptr %10, null
  %.not3.i.i = icmp eq ptr %9, %10
  %or.cond.i.i = or i1 %.not.i.i, %.not3.i.i
  br i1 %or.cond.i.i, label %_ZN7datalog10scoped_relINS_10table_baseEEaSEPS1_.exit.i, label %11

11:                                               ; preds = %6
  tail call void @_ZN7datalog16universal_deleteEPNS_10table_baseE(ptr noundef nonnull %10)
  br label %_ZN7datalog10scoped_relINS_10table_baseEEaSEPS1_.exit.i

_ZN7datalog10scoped_relINS_10table_baseEEaSEPS1_.exit.i: ; preds = %11, %6
  store ptr %9, ptr %4, align 8, !tbaa !51
  br label %_ZN7datalog14lazy_table_ref4evalEv.exit

_ZN7datalog14lazy_table_ref4evalEv.exit:          ; preds = %1, %_ZN7datalog10scoped_relINS_10table_baseEEaSEPS1_.exit.i
  %12 = phi ptr [ %9, %_ZN7datalog10scoped_relINS_10table_baseEEaSEPS1_.exit.i ], [ %5, %1 ]
  ret ptr %12
}